
Allocating common symbols
Common symbol       size              file

proc                0x10280           t.o
kbd                 0x94              t.o
timerQueueEntries   0xc0              t.o
timer               0x24              t.o
running             0x4               t.o
font                0x4               t.o
fb                  0x4               t.o
readyQueue          0x4               t.o
sleepList           0x4               t.o
cursor              0x1               t.o
col                 0x4               t.o
ISP                 0x4               t.o
color               0x4               t.o
freeList            0x4               t.o
row                 0x4               t.o

Memory Configuration

Name             Origin             Length             Attributes
*default*        0x0000000000000000 0xffffffffffffffff

Linker script and memory map

                0x0000000000010000                . = 0x10000

.text           0x0000000000010000     0x2a7c
 ts.o()
 .text          0x0000000000010000       0xfc ts.o
                0x0000000000010000                reset_handler
                0x0000000000010034                tswitch
                0x0000000000010070                int_on
                0x0000000000010078                int_off
                0x000000000001008c                lock
                0x000000000001009c                unlock
                0x00000000000100ac                getcpsr
                0x00000000000100b4                vectors_start
                0x00000000000100f0                vectors_end
 .data          0x00000000000100fc        0x0 ts.o
 .bss           0x00000000000100fc        0x0 ts.o
 .debug_line    0x00000000000100fc       0x71 ts.o
 .debug_info    0x000000000001016d       0x26 ts.o
 .debug_abbrev  0x0000000000010193       0x14 ts.o
 *fill*         0x00000000000101a7        0x1 
 .debug_aranges
                0x00000000000101a8       0x20 ts.o
 .debug_str     0x00000000000101c8       0x2e ts.o
 .ARM.attributes
                0x00000000000101f6       0x22 ts.o
 .iplt          0x0000000000010218        0x0 ts.o
 .rel.iplt      0x0000000000010218        0x0 ts.o
 .igot.plt      0x0000000000010218        0x0 ts.o
 *(.text .rodata)
 .text          0x0000000000010218     0x264c t.o
                0x0000000000010218                strlen
                0x0000000000010270                strcmp
                0x0000000000010328                kstrcpy
                0x0000000000010390                atoi
                0x0000000000010408                geti
                0x000000000001043c                getproc
                0x0000000000010488                putproc
                0x00000000000104cc                enqueue
                0x00000000000105b4                dequeue
                0x0000000000010600                printQ
                0x0000000000010674                printSleepList
                0x00000000000106e8                printList
                0x0000000000010754                kbd_init
                0x00000000000107f0                kbd_handler
                0x0000000000010948                kgetc
                0x00000000000109f8                kgets
                0x0000000000010a84                fbuf_init
                0x0000000000010b9c                clrpix
                0x0000000000010c08                setpix
                0x0000000000010dc8                dchar
                0x0000000000010ec4                scroll
                0x0000000000010f48                kpchar
                0x0000000000010fa0                erasechar
                0x000000000001104c                clrcursor
                0x0000000000011064                putcursor
                0x00000000000110a4                kputc
                0x0000000000011210                kprints
                0x0000000000011260                krpx
                0x00000000000112fc                kprintx
                0x0000000000011344                krpu
                0x0000000000011400                kprintu
                0x0000000000011440                kprinti
                0x0000000000011488                kprintf
                0x0000000000011618                undchar
                0x00000000000116f4                unkpchar
                0x000000000001174c                displayClock
                0x00000000000117f8                undef_handler
                0x0000000000011804                swi_handler
                0x0000000000011810                prefetch_abort_handler
                0x000000000001181c                data_abort_handler
                0x0000000000011828                fiq_handler
                0x0000000000011834                init
                0x0000000000011960                kfork
                0x0000000000011a9c                scheduler
                0x0000000000011b94                ksleep
                0x0000000000011bec                kwakeup
                0x0000000000011cf4                kexit
                0x0000000000011d50                body
                0x0000000000011dd8                timer_init
                0x0000000000011f00                decrement_and_remove_tqe
                0x0000000000011fa0                print_tqe
                0x0000000000012038                updateClock
                0x0000000000012264                timer_handler
                0x00000000000122f0                timer_start
                0x0000000000012350                timer_clearInterrupt
                0x0000000000012390                timer_stop
                0x00000000000123dc                add_tqe
                0x00000000000125c4                kitimer
                0x0000000000012638                copy_vectors
                0x00000000000126a4                IRQ_handler
                0x0000000000012710                main
 .rodata        0x0000000000012864      0x218 t.o

.glue_7         0x0000000000012a7c        0x0
 .glue_7        0x0000000000012a7c        0x0 linker stubs

.glue_7t        0x0000000000012a7c        0x0
 .glue_7t       0x0000000000012a7c        0x0 linker stubs

.vfp11_veneer   0x0000000000012a7c        0x0
 .vfp11_veneer  0x0000000000012a7c        0x0 linker stubs

.v4_bx          0x0000000000012a7c        0x0
 .v4_bx         0x0000000000012a7c        0x0 linker stubs

.data           0x0000000000012a7c      0x908
 *(.data)
 .data          0x0000000000012a7c      0x908 t.o
                0x0000000000012a7c                ltab
                0x0000000000012aec                utab
                0x0000000000012b5c                fonts0
                0x000000000001337c                tab
                0x0000000000013380                procsize

.bss            0x0000000000013384    0x1042c
 *(.bss)
 .bss           0x0000000000013384        0x8 t.o
                0x0000000000013384                release
                0x0000000000013388                timerQueue
 COMMON         0x000000000001338c    0x10424 t.o
                0x000000000001338c                proc
                0x000000000002360c                kbd
                0x00000000000236a0                timerQueueEntries
                0x0000000000023760                timer
                0x0000000000023784                running
                0x0000000000023788                font
                0x000000000002378c                fb
                0x0000000000023790                readyQueue
                0x0000000000023794                sleepList
                0x0000000000023798                cursor
                0x000000000002379c                col
                0x00000000000237a0                ISP
                0x00000000000237a4                color
                0x00000000000237a8                freeList
                0x00000000000237ac                row
                0x00000000000237b0                . = ALIGN (0x8)
                0x00000000000247b0                . = (. + 0x1000)
                0x00000000000247b0                svc_stack_top = .
                0x00000000000257b0                . = (. + 0x1000)
                0x00000000000257b0                irq_stack_top = .
LOAD ts.o
LOAD t.o
OUTPUT(t.elf elf32-littlearm)
LOAD linker stubs

.debug_info     0x0000000000000000     0x12a7
 .debug_info    0x0000000000000000     0x12a7 t.o

.debug_abbrev   0x0000000000000000      0x2fa
 .debug_abbrev  0x0000000000000000      0x2fa t.o

.debug_aranges  0x0000000000000000       0x20
 .debug_aranges
                0x0000000000000000       0x20 t.o

.debug_line     0x0000000000000000      0xb3f
 .debug_line    0x0000000000000000      0xb3f t.o

.debug_str      0x0000000000000000      0x48a
 .debug_str     0x0000000000000000      0x48a t.o
                                        0x4d7 (size before relaxing)

.comment        0x0000000000000000       0x59
 .comment       0x0000000000000000       0x59 t.o
                                         0x5a (size before relaxing)

.ARM.attributes
                0x0000000000000000       0x2e
 .ARM.attributes
                0x0000000000000000       0x2c t.o

.debug_frame    0x0000000000000000      0x790
 .debug_frame   0x0000000000000000      0x790 t.o
